target datalayout = "e-m:e-p270:32:32-p271:32:32-p272:64:64-i64:64-i128:128-f80:128-n8:16:32:64-S128"
target triple = "x86_64-pc-linux-gnu"

%struct.translation_ctx_st = type { ptr, i32, i32, ptr, i32, i32, ptr, i64, ptr, ptr, [50 x i8], ptr, ptr, i64 }

; Function Attrs: nounwind uwtable
define internal i32 @fix_ec_paramgen_curve_nid(i32 noundef %0, ptr noundef %1, ptr noundef %2) #0 {
  %4 = alloca i32, align 4
  %5 = alloca i32, align 4
  %6 = alloca ptr, align 8
  %7 = alloca ptr, align 8
  %8 = alloca ptr, align 8
  %9 = alloca i32, align 4
  %10 = alloca i32, align 4
  store i32 %0, ptr %5, align 4, !tbaa !8
  store ptr %1, ptr %6, align 8, !tbaa !11
  store ptr %2, ptr %7, align 8, !tbaa !43
  call void @llvm.lifetime.start.p0(i64 8, ptr %8) #9
  store ptr null, ptr %8, align 8, !tbaa !50
  call void @llvm.lifetime.start.p0(i64 4, ptr %9) #9
  %11 = load i32, ptr %5, align 4, !tbaa !8
  %12 = load ptr, ptr %6, align 8, !tbaa !11
  %13 = load ptr, ptr %7, align 8, !tbaa !43
  %14 = call i32 @default_check(i32 noundef %11, ptr noundef %12, ptr noundef %13)
  store i32 %14, ptr %9, align 4, !tbaa !8
  %15 = icmp sle i32 %14, 0
  br i1 %15, label %16, label %18

16:                                               ; preds = %3
  %17 = load i32, ptr %9, align 4, !tbaa !8
  store i32 %17, ptr %4, align 4
  store i32 1, ptr %10, align 4
  br label %68

18:                                               ; preds = %3
  %19 = load ptr, ptr %7, align 8, !tbaa !43
  %20 = getelementptr inbounds nuw %struct.translation_ctx_st, ptr %19, i32 0, i32 1
  %21 = load i32, ptr %20, align 8, !tbaa !35
  %22 = icmp ne i32 %21, 2
  br i1 %22, label %23, label %24

23:                                               ; preds = %18
  store i32 0, ptr %4, align 4
  store i32 1, ptr %10, align 4
  br label %68

24:                                               ; preds = %18
  %25 = load i32, ptr %5, align 4, !tbaa !8
  %26 = icmp eq i32 %25, 1
  br i1 %26, label %27, label %36

27:                                               ; preds = %24
  %28 = load ptr, ptr %7, align 8, !tbaa !43
  %29 = getelementptr inbounds nuw %struct.translation_ctx_st, ptr %28, i32 0, i32 5
  %30 = load i32, ptr %29, align 4, !tbaa !39
  %31 = call ptr @OBJ_nid2sn(i32 noundef %30)
  %32 = load ptr, ptr %7, align 8, !tbaa !43
  %33 = getelementptr inbounds nuw %struct.translation_ctx_st, ptr %32, i32 0, i32 6
  store ptr %31, ptr %33, align 8, !tbaa !40
  %34 = load ptr, ptr %7, align 8, !tbaa !43
  %35 = getelementptr inbounds nuw %struct.translation_ctx_st, ptr %34, i32 0, i32 5
  store i32 0, ptr %35, align 4, !tbaa !39
  br label %48

36:                                               ; preds = %24
  %37 = load i32, ptr %5, align 4, !tbaa !8
  %38 = icmp eq i32 %37, 7
  br i1 %38, label %39, label %47

39:                                               ; preds = %36
  %40 = load ptr, ptr %7, align 8, !tbaa !43
  %41 = getelementptr inbounds nuw %struct.translation_ctx_st, ptr %40, i32 0, i32 10
  %42 = getelementptr inbounds [50 x i8], ptr %41, i64 0, i64 0
  store ptr %42, ptr %8, align 8, !tbaa !50
  %43 = load ptr, ptr %7, align 8, !tbaa !43
  %44 = getelementptr inbounds nuw %struct.translation_ctx_st, ptr %43, i32 0, i32 6
  store ptr %8, ptr %44, align 8, !tbaa !40
  %45 = load ptr, ptr %7, align 8, !tbaa !43
  %46 = getelementptr inbounds nuw %struct.translation_ctx_st, ptr %45, i32 0, i32 7
  store i64 50, ptr %46, align 8, !tbaa !61
  br label %47

47:                                               ; preds = %39, %36
  br label %48

48:                                               ; preds = %47, %27
  %49 = load i32, ptr %5, align 4, !tbaa !8
  %50 = load ptr, ptr %6, align 8, !tbaa !11
  %51 = load ptr, ptr %7, align 8, !tbaa !43
  %52 = call i32 @default_fixup_args(i32 noundef %49, ptr noundef %50, ptr noundef %51)
  store i32 %52, ptr %9, align 4, !tbaa !8
  %53 = icmp sle i32 %52, 0
  br i1 %53, label %54, label %56

54:                                               ; preds = %48
  %55 = load i32, ptr %9, align 4, !tbaa !8
  store i32 %55, ptr %4, align 4
  store i32 1, ptr %10, align 4
  br label %68

56:                                               ; preds = %48
  %57 = load i32, ptr %5, align 4, !tbaa !8
  %58 = icmp eq i32 %57, 7
  br i1 %58, label %59, label %66

59:                                               ; preds = %56
  %60 = load ptr, ptr %8, align 8, !tbaa !50
  %61 = call i32 @OBJ_sn2nid(ptr noundef %60)
  %62 = load ptr, ptr %7, align 8, !tbaa !43
  %63 = getelementptr inbounds nuw %struct.translation_ctx_st, ptr %62, i32 0, i32 5
  store i32 %61, ptr %63, align 4, !tbaa !39
  %64 = load ptr, ptr %7, align 8, !tbaa !43
  %65 = getelementptr inbounds nuw %struct.translation_ctx_st, ptr %64, i32 0, i32 6
  store ptr null, ptr %65, align 8, !tbaa !40
  br label %66

66:                                               ; preds = %59, %56
  %67 = load i32, ptr %9, align 4, !tbaa !8
  store i32 %67, ptr %4, align 4
  store i32 1, ptr %10, align 4
  br label %68

68:                                               ; preds = %66, %54, %23, %16
  call void @llvm.lifetime.end.p0(i64 4, ptr %9) #9
  call void @llvm.lifetime.end.p0(i64 8, ptr %8) #9
  %69 = load i32, ptr %4, align 4
  ret i32 %69
}