; Function Attrs: nounwind uwtable
define internal i32 @fix_ec_paramgen_curve_nid(i32 noundef %0, ptr noundef captures(address_is_null) %1, ptr noundef %2) #0 {
  %4 = alloca ptr, align 8
  call void @llvm.lifetime.start.p0(i64 8, ptr nonnull %4) #8
  store ptr null, ptr %4, align 8, !tbaa !44
  %5 = tail call fastcc i32 @default_check(i32 noundef %0, ptr noundef %1)
  %6 = icmp slt i32 %5, 1
  br i1 %6, label %29, label %7

7:                                                ; preds = %3
  %8 = getelementptr inbounds nuw i8, ptr %2, i64 8
  %9 = load i32, ptr %8, align 8, !tbaa !29
  %.not = icmp eq i32 %9, 2
  br i1 %.not, label %10, label %29

10:                                               ; preds = %7
  switch i32 %0, label %20 [
    i32 1, label %11
    i32 7, label %16
  ]

11:                                               ; preds = %10
  %12 = getelementptr inbounds nuw i8, ptr %2, i64 28
  %13 = load i32, ptr %12, align 4, !tbaa !34
  %14 = tail call ptr @OBJ_nid2sn(i32 noundef %13) #8
  %15 = getelementptr inbounds nuw i8, ptr %2, i64 32
  store ptr %14, ptr %15, align 8, !tbaa !35
  store i32 0, ptr %12, align 4, !tbaa !34
  br label %20

16:                                               ; preds = %10
  %17 = getelementptr inbounds nuw i8, ptr %2, i64 64
  store ptr %17, ptr %4, align 8, !tbaa !44
  %18 = getelementptr inbounds nuw i8, ptr %2, i64 32
  store ptr %4, ptr %18, align 8, !tbaa !35
  %19 = getelementptr inbounds nuw i8, ptr %2, i64 40
  store i64 50, ptr %19, align 8, !tbaa !55
  br label %20

20:                                               ; preds = %10, %16, %11
  %21 = call i32 @default_fixup_args(i32 noundef %0, ptr noundef %1, ptr noundef nonnull %2)
  %22 = icmp sgt i32 %21, 0
  %23 = icmp eq i32 %0, 7
  %or.cond = and i1 %23, %22
  br i1 %or.cond, label %24, label %29

24:                                               ; preds = %20
  %25 = load ptr, ptr %4, align 8, !tbaa !44
  %26 = call i32 @OBJ_sn2nid(ptr noundef %25) #8
  %27 = getelementptr inbounds nuw i8, ptr %2, i64 28
  store i32 %26, ptr %27, align 4, !tbaa !34
  %28 = getelementptr inbounds nuw i8, ptr %2, i64 32
  store ptr null, ptr %28, align 8, !tbaa !35
  br label %29

29:                                               ; preds = %24, %20, %7, %3
  %.0 = phi i32 [ %5, %3 ], [ 0, %7 ], [ %21, %20 ], [ %21, %24 ]
  call void @llvm.lifetime.end.p0(i64 8, ptr nonnull %4) #8
  ret i32 %.0
}